target datalayout = "e-m:e-p270:32:32-p271:32:32-p272:64:64-i64:64-i128:128-f80:128-n8:16:32:64-S128"
target triple = "x86_64-pc-linux-gnu"

%class.mpff_manager = type <{ i32, i32, %class.svector, i32, i8, [3 x i8], %class.id_gen, [4 x %class.svector], %class.svector, %class.mpff, [8 x i8] }>
%class.id_gen = type { i32, %class.svector }
%class.svector = type { %class.vector }
%class.vector = type { ptr }
%class.mpff = type { i32, i32 }

; Function Attrs: mustprogress nounwind uwtable
define linkonce_odr hidden noundef ptr @_ZNK6vectorIjLb0EjE4dataEv(ptr noundef nonnull align 8 dereferenceable(8) %0) #5 comdat align 2 {
  %2 = alloca ptr, align 8
  store ptr %0, ptr %2, align 8, !tbaa !32
  %3 = load ptr, ptr %2, align 8
  %4 = getelementptr inbounds nuw %class.vector, ptr %3, i32 0, i32 0
  %5 = load ptr, ptr %4, align 8, !tbaa !35
  ret ptr %5
}

; Function Attrs: mustprogress uwtable
define linkonce_odr hidden noundef ptr @_ZNK12mpff_manager3sigERK4mpff(ptr noundef nonnull align 8 dereferenceable(89) %0, ptr noundef nonnull align 4 dereferenceable(8) %1) #4 comdat align 2 {
  %3 = alloca ptr, align 8
  %4 = alloca ptr, align 8
  store ptr %0, ptr %3, align 8, !tbaa !3
  store ptr %1, ptr %4, align 8, !tbaa !29
  %5 = load ptr, ptr %3, align 8
  %6 = getelementptr inbounds nuw %class.mpff_manager, ptr %5, i32 0, i32 2
  %7 = call noundef ptr @_ZNK6vectorIjLb0EjE4dataEv(ptr noundef nonnull align 8 dereferenceable(8) %6)
  %8 = load ptr, ptr %4, align 8, !tbaa !29
  %9 = load i32, ptr %8, align 4
  %10 = lshr i32 %9, 1
  %11 = getelementptr inbounds nuw %class.mpff_manager, ptr %5, i32 0, i32 0
  %12 = load i32, ptr %11, align 8, !tbaa !10
  %13 = mul i32 %10, %12
  %14 = zext i32 %13 to i64
  %15 = getelementptr inbounds nuw i32, ptr %7, i64 %14
  ret ptr %15
}

; Function Attrs: mustprogress nounwind uwtable
define linkonce_odr hidden noundef zeroext i1 @_ZN12mpff_manager6is_negERK4mpff(ptr noundef nonnull align 4 dereferenceable(8) %0) #5 comdat align 2 {
  %2 = alloca ptr, align 8
  store ptr %0, ptr %2, align 8, !tbaa !29
  %3 = load ptr, ptr %2, align 8, !tbaa !29
  %4 = load i32, ptr %3, align 4
  %5 = and i32 %4, 1
  %6 = icmp ne i32 %5, 0
  ret i1 %6
}

; Function Attrs: mustprogress nounwind uwtable
define linkonce_odr hidden noundef zeroext i1 @_ZN12mpff_manager7is_zeroERK4mpff(ptr noundef nonnull align 4 dereferenceable(8) %0) #5 comdat align 2 {
  %2 = alloca ptr, align 8
  store ptr %0, ptr %2, align 8, !tbaa !29
  %3 = load ptr, ptr %2, align 8, !tbaa !29
  %4 = load i32, ptr %3, align 4
  %5 = lshr i32 %4, 1
  %6 = icmp eq i32 %5, 0
  ret i1 %6
}

; Function Attrs: mustprogress uwtable
define hidden noundef zeroext i1 @_ZNK12mpff_manager2ltERK4mpffS2_(ptr noundef nonnull align 8 dereferenceable(89) %0, ptr noundef nonnull align 4 dereferenceable(8) %1, ptr noundef nonnull align 4 dereferenceable(8) %2) #4 align 2 {
  %4 = alloca i1, align 1
  %5 = alloca ptr, align 8
  %6 = alloca ptr, align 8
  %7 = alloca ptr, align 8
  %8 = alloca i8, align 1
  %9 = alloca i8, align 1
  store ptr %0, ptr %5, align 8, !tbaa !3
  store ptr %1, ptr %6, align 8, !tbaa !29
  store ptr %2, ptr %7, align 8, !tbaa !29
  %10 = load ptr, ptr %5, align 8
  %11 = load ptr, ptr %6, align 8, !tbaa !29
  %12 = call noundef zeroext i1 @_ZN12mpff_manager7is_zeroERK4mpff(ptr noundef nonnull align 4 dereferenceable(8) %11)
  br i1 %12, label %13, label %21

13:                                               ; preds = %3
  %14 = load ptr, ptr %7, align 8, !tbaa !29
  %15 = call noundef zeroext i1 @_ZN12mpff_manager7is_zeroERK4mpff(ptr noundef nonnull align 4 dereferenceable(8) %14)
  br i1 %15, label %19, label %16

16:                                               ; preds = %13
  %17 = load ptr, ptr %7, align 8, !tbaa !29
  %18 = call noundef zeroext i1 @_ZN12mpff_manager6is_negERK4mpff(ptr noundef nonnull align 4 dereferenceable(8) %17)
  br i1 %18, label %19, label %20

19:                                               ; preds = %16, %13
  store i1 false, ptr %4, align 1
  br label %108

20:                                               ; preds = %16
  store i1 true, ptr %4, align 1
  br label %108

21:                                               ; preds = %3
  %22 = load ptr, ptr %7, align 8, !tbaa !29
  %23 = call noundef zeroext i1 @_ZN12mpff_manager7is_zeroERK4mpff(ptr noundef nonnull align 4 dereferenceable(8) %22)
  br i1 %23, label %24, label %29

24:                                               ; preds = %21
  %25 = load ptr, ptr %6, align 8, !tbaa !29
  %26 = call noundef zeroext i1 @_ZN12mpff_manager6is_negERK4mpff(ptr noundef nonnull align 4 dereferenceable(8) %25)
  br i1 %26, label %27, label %28

27:                                               ; preds = %24
  store i1 true, ptr %4, align 1
  br label %108

28:                                               ; preds = %24
  store i1 false, ptr %4, align 1
  br label %108

29:                                               ; preds = %21
  %30 = load ptr, ptr %6, align 8, !tbaa !29
  %31 = load i32, ptr %30, align 4
  %32 = and i32 %31, 1
  %33 = icmp eq i32 %32, 1
  br i1 %33, label %34, label %71

34:                                               ; preds = %29
  %35 = load ptr, ptr %7, align 8, !tbaa !29
  %36 = load i32, ptr %35, align 4
  %37 = and i32 %36, 1
  %38 = icmp eq i32 %37, 0
  br i1 %38, label %39, label %40

39:                                               ; preds = %34
  store i1 true, ptr %4, align 1
  br label %108

40:                                               ; preds = %34
  call void @llvm.lifetime.start.p0(i64 1, ptr %8) #3
  %41 = load ptr, ptr %7, align 8, !tbaa !29
  %42 = getelementptr inbounds nuw %class.mpff, ptr %41, i32 0, i32 1
  %43 = load i32, ptr %42, align 4, !tbaa !31
  %44 = load ptr, ptr %6, align 8, !tbaa !29
  %45 = getelementptr inbounds nuw %class.mpff, ptr %44, i32 0, i32 1
  %46 = load i32, ptr %45, align 4, !tbaa !31
  %47 = icmp slt i32 %43, %46
  br i1 %47, label %66, label %48

48:                                               ; preds = %40
  %49 = load ptr, ptr %6, align 8, !tbaa !29
  %50 = getelementptr inbounds nuw %class.mpff, ptr %49, i32 0, i32 1
  %51 = load i32, ptr %50, align 4, !tbaa !31
  %52 = load ptr, ptr %7, align 8, !tbaa !29
  %53 = getelementptr inbounds nuw %class.mpff, ptr %52, i32 0, i32 1
  %54 = load i32, ptr %53, align 4, !tbaa !31
  %55 = icmp eq i32 %51, %54
  br i1 %55, label %56, label %64

56:                                               ; preds = %48
  %57 = getelementptr inbounds nuw %class.mpff_manager, ptr %10, i32 0, i32 0
  %58 = load i32, ptr %57, align 8, !tbaa !10
  %59 = load ptr, ptr %7, align 8, !tbaa !29
  %60 = call noundef ptr @_ZNK12mpff_manager3sigERK4mpff(ptr noundef nonnull align 8 dereferenceable(89) %10, ptr noundef nonnull align 4 dereferenceable(8) %59)
  %61 = load ptr, ptr %6, align 8, !tbaa !29
  %62 = call noundef ptr @_ZNK12mpff_manager3sigERK4mpff(ptr noundef nonnull align 8 dereferenceable(89) %10, ptr noundef nonnull align 4 dereferenceable(8) %61)
  %63 = call noundef zeroext i1 @_Z2ltjPjS_(i32 noundef %58, ptr noundef %60, ptr noundef %62)
  br label %64

64:                                               ; preds = %56, %48
  %65 = phi i1 [ false, %48 ], [ %63, %56 ]
  br label %66

66:                                               ; preds = %64, %40
  %67 = phi i1 [ true, %40 ], [ %65, %64 ]
  %68 = zext i1 %67 to i8
  store i8 %68, ptr %8, align 1, !tbaa !55
  %69 = load i8, ptr %8, align 1, !tbaa !55, !range !53, !noundef !54
  %70 = trunc i8 %69 to i1
  store i1 %70, ptr %4, align 1
  call void @llvm.lifetime.end.p0(i64 1, ptr %8) #3
  br label %108

71:                                               ; preds = %29
  %72 = load ptr, ptr %7, align 8, !tbaa !29
  %73 = load i32, ptr %72, align 4
  %74 = and i32 %73, 1
  %75 = icmp eq i32 %74, 1
  br i1 %75, label %76, label %77

76:                                               ; preds = %71
  store i1 false, ptr %4, align 1
  br label %108

77:                                               ; preds = %71
  call void @llvm.lifetime.start.p0(i64 1, ptr %9) #3
  %78 = load ptr, ptr %6, align 8, !tbaa !29
  %79 = getelementptr inbounds nuw %class.mpff, ptr %78, i32 0, i32 1
  %80 = load i32, ptr %79, align 4, !tbaa !31
  %81 = load ptr, ptr %7, align 8, !tbaa !29
  %82 = getelementptr inbounds nuw %class.mpff, ptr %81, i32 0, i32 1
  %83 = load i32, ptr %82, align 4, !tbaa !31
  %84 = icmp slt i32 %80, %83
  br i1 %84, label %103, label %85

85:                                               ; preds = %77
  %86 = load ptr, ptr %6, align 8, !tbaa !29
  %87 = getelementptr inbounds nuw %class.mpff, ptr %86, i32 0, i32 1
  %88 = load i32, ptr %87, align 4, !tbaa !31
  %89 = load ptr, ptr %7, align 8, !tbaa !29
  %90 = getelementptr inbounds nuw %class.mpff, ptr %89, i32 0, i32 1
  %91 = load i32, ptr %90, align 4, !tbaa !31
  %92 = icmp eq i32 %88, %91
  br i1 %92, label %93, label %101

93:                                               ; preds = %85
  %94 = getelementptr inbounds nuw %class.mpff_manager, ptr %10, i32 0, i32 0
  %95 = load i32, ptr %94, align 8, !tbaa !10
  %96 = load ptr, ptr %6, align 8, !tbaa !29
  %97 = call noundef ptr @_ZNK12mpff_manager3sigERK4mpff(ptr noundef nonnull align 8 dereferenceable(89) %10, ptr noundef nonnull align 4 dereferenceable(8) %96)
  %98 = load ptr, ptr %7, align 8, !tbaa !29
  %99 = call noundef ptr @_ZNK12mpff_manager3sigERK4mpff(ptr noundef nonnull align 8 dereferenceable(89) %10, ptr noundef nonnull align 4 dereferenceable(8) %98)
  %100 = call noundef zeroext i1 @_Z2ltjPjS_(i32 noundef %95, ptr noundef %97, ptr noundef %99)
  br label %101

101:                                              ; preds = %93, %85
  %102 = phi i1 [ false, %85 ], [ %100, %93 ]
  br label %103

103:                                              ; preds = %101, %77
  %104 = phi i1 [ true, %77 ], [ %102, %101 ]
  %105 = zext i1 %104 to i8
  store i8 %105, ptr %9, align 1, !tbaa !55
  %106 = load i8, ptr %9, align 1, !tbaa !55, !range !53, !noundef !54
  %107 = trunc i8 %106 to i1
  store i1 %107, ptr %4, align 1
  call void @llvm.lifetime.end.p0(i64 1, ptr %9) #3
  br label %108

108:                                              ; preds = %103, %76, %66, %39, %28, %27, %20, %19
  %109 = load i1, ptr %4, align 1
  ret i1 %109
}