; Function Attrs: mustprogress uwtable
define hidden noundef zeroext i1 @_ZNK12mpff_manager2ltERK4mpffS2_(ptr noundef nonnull readonly align 8 captures(none) dereferenceable(89) %0, ptr noundef nonnull readonly align 4 captures(none) dereferenceable(8) %1, ptr noundef nonnull readonly align 4 captures(none) dereferenceable(8) %2) local_unnamed_addr #3 align 2 {
  %4 = load i32, ptr %1, align 4
  %5 = icmp ult i32 %4, 2
  %6 = load i32, ptr %2, align 4
  %7 = icmp ult i32 %6, 2
  br i1 %5, label %8, label %11

8:                                                ; preds = %3
  br i1 %7, label %61, label %9

9:                                                ; preds = %8
  %10 = and i32 %6, 1
  %.not28 = icmp eq i32 %10, 0
  br label %61

11:                                               ; preds = %3
  %12 = and i32 %4, 1
  br i1 %7, label %13, label %15

13:                                               ; preds = %11
  %14 = icmp ne i32 %12, 0
  br label %61

15:                                               ; preds = %11
  %.not = icmp eq i32 %12, 0
  %16 = and i32 %6, 1
  %.not27 = icmp eq i32 %16, 0
  br i1 %.not, label %39, label %17

17:                                               ; preds = %15
  br i1 %.not27, label %61, label %18

18:                                               ; preds = %17
  %19 = getelementptr inbounds nuw i8, ptr %2, i64 4
  %20 = load i32, ptr %19, align 4, !tbaa !35
  %21 = getelementptr inbounds nuw i8, ptr %1, i64 4
  %22 = load i32, ptr %21, align 4, !tbaa !35
  %23 = icmp slt i32 %20, %22
  br i1 %23, label %61, label %24

24:                                               ; preds = %18
  %25 = icmp eq i32 %22, %20
  br i1 %25, label %26, label %61

26:                                               ; preds = %24
  %27 = load i32, ptr %0, align 8, !tbaa !13
  %28 = getelementptr inbounds nuw i8, ptr %0, i64 8
  %29 = load ptr, ptr %28, align 8, !tbaa !3
  %30 = lshr i32 %6, 1
  %31 = mul i32 %27, %30
  %32 = zext i32 %31 to i64
  %33 = getelementptr inbounds nuw i32, ptr %29, i64 %32
  %34 = lshr i32 %4, 1
  %35 = mul i32 %27, %34
  %36 = zext i32 %35 to i64
  %37 = getelementptr inbounds nuw i32, ptr %29, i64 %36
  %38 = tail call noundef zeroext i1 @_Z2ltjPjS_(i32 noundef %27, ptr noundef %33, ptr noundef %37)
  br label %61

39:                                               ; preds = %15
  br i1 %.not27, label %40, label %61

40:                                               ; preds = %39
  %41 = getelementptr inbounds nuw i8, ptr %1, i64 4
  %42 = load i32, ptr %41, align 4, !tbaa !35
  %43 = getelementptr inbounds nuw i8, ptr %2, i64 4
  %44 = load i32, ptr %43, align 4, !tbaa !35
  %45 = icmp slt i32 %42, %44
  br i1 %45, label %61, label %46

46:                                               ; preds = %40
  %47 = icmp eq i32 %42, %44
  br i1 %47, label %48, label %61

48:                                               ; preds = %46
  %49 = load i32, ptr %0, align 8, !tbaa !13
  %50 = getelementptr inbounds nuw i8, ptr %0, i64 8
  %51 = load ptr, ptr %50, align 8, !tbaa !3
  %52 = lshr exact i32 %4, 1
  %53 = mul i32 %49, %52
  %54 = zext i32 %53 to i64
  %55 = getelementptr inbounds nuw i32, ptr %51, i64 %54
  %56 = lshr exact i32 %6, 1
  %57 = mul i32 %49, %56
  %58 = zext i32 %57 to i64
  %59 = getelementptr inbounds nuw i32, ptr %51, i64 %58
  %60 = tail call noundef zeroext i1 @_Z2ltjPjS_(i32 noundef %49, ptr noundef %55, ptr noundef %59)
  br label %61

61:                                               ; preds = %9, %40, %48, %46, %39, %18, %26, %24, %17, %13, %8
  %.0 = phi i1 [ false, %8 ], [ %14, %13 ], [ true, %17 ], [ true, %18 ], [ false, %24 ], [ %38, %26 ], [ false, %39 ], [ true, %40 ], [ false, %46 ], [ %60, %48 ], [ %.not28, %9 ]
  ret i1 %.0
}